; Function Attrs: nounwind uwtable
define void @Gia_ManExploreCutsTest(ptr noundef %0, i32 noundef %1, i32 noundef %2, i32 noundef %3) local_unnamed_addr #0 {
  %5 = tail call ptr @Gia_ManExploreCuts(ptr noundef %0, i32 noundef %1, i32 noundef %2, i32 noundef %3)
  %6 = getelementptr i8, ptr %5, i64 4
  %.val1821.i = load i32, ptr %6, align 4, !tbaa !100
  %7 = icmp sgt i32 %.val1821.i, 0
  %8 = getelementptr i8, ptr %5, i64 8
  %.val.i = load ptr, ptr %8, align 8, !tbaa !34
  br i1 %7, label %.lr.ph23.i, label %Vec_WecPrint.exit

.lr.ph23.i:                                       ; preds = %4
  %9 = zext nneg i32 %.val1821.i to i64
  br label %10

10:                                               ; preds = %.critedge2.i, %.lr.ph23.i
  %indvars.iv25.i = phi i64 [ 0, %.lr.ph23.i ], [ %indvars.iv.next26.i, %.critedge2.i ]
  %11 = getelementptr inbounds nuw %struct.Vec_Int_t_, ptr %.val.i, i64 %indvars.iv25.i
  %12 = trunc nuw nsw i64 %indvars.iv25.i to i32
  %13 = tail call i32 (ptr, ...) @printf(ptr noundef nonnull dereferenceable(1) @.str.52, i32 noundef %12)
  %14 = getelementptr i8, ptr %11, i64 4
  %.val1719.i = load i32, ptr %14, align 4, !tbaa !89
  %15 = icmp sgt i32 %.val1719.i, 0
  br i1 %15, label %.lr.ph.i, label %.critedge2.i

.lr.ph.i:                                         ; preds = %10
  %16 = getelementptr i8, ptr %11, i64 8
  br label %17

17:                                               ; preds = %17, %.lr.ph.i
  %indvars.iv.i = phi i64 [ 0, %.lr.ph.i ], [ %indvars.iv.next.i, %17 ]
  %.val16.i = load ptr, ptr %16, align 8, !tbaa !36
  %18 = getelementptr inbounds nuw i32, ptr %.val16.i, i64 %indvars.iv.i
  %19 = load i32, ptr %18, align 4, !tbaa !37
  %20 = tail call i32 (ptr, ...) @printf(ptr noundef nonnull dereferenceable(1) @.str.19, i32 noundef %19)
  %indvars.iv.next.i = add nuw nsw i64 %indvars.iv.i, 1
  %.val17.i = load i32, ptr %14, align 4, !tbaa !89
  %21 = sext i32 %.val17.i to i64
  %22 = icmp slt i64 %indvars.iv.next.i, %21
  br i1 %22, label %17, label %.critedge2.i, !llvm.loop !182

.critedge2.i:                                     ; preds = %17, %10
  %puts.i = tail call i32 @puts(ptr nonnull dereferenceable(1) @str.2)
  %indvars.iv.next26.i = add nuw nsw i64 %indvars.iv25.i, 1
  %exitcond.not = icmp eq i64 %indvars.iv.next26.i, %9
  br i1 %exitcond.not, label %Vec_WecPrint.exit, label %10, !llvm.loop !183

Vec_WecPrint.exit:                                ; preds = %.critedge2.i, %4
  %23 = load i32, ptr %5, align 8, !tbaa !99
  %24 = icmp sgt i32 %23, 0
  br i1 %24, label %.lr.ph.i.i.preheader, label %._crit_edge.i.i

.lr.ph.i.i.preheader:                             ; preds = %Vec_WecPrint.exit
  %25 = zext nneg i32 %23 to i64
  br label %.lr.ph.i.i

.lr.ph.i.i:                                       ; preds = %.lr.ph.i.i.preheader, %29
  %indvars.iv.i.i = phi i64 [ %indvars.iv.next.i.i, %29 ], [ 0, %.lr.ph.i.i.preheader ]
  %26 = getelementptr inbounds nuw %struct.Vec_Int_t_, ptr %.val.i, i64 %indvars.iv.i.i, i32 2
  %27 = load ptr, ptr %26, align 8, !tbaa !36
  %.not15.i.i = icmp eq ptr %27, null
  br i1 %.not15.i.i, label %29, label %28

28:                                               ; preds = %.lr.ph.i.i
  tail call void @free(ptr noundef nonnull %27) #26
  store ptr null, ptr %26, align 8, !tbaa !36
  br label %29

29:                                               ; preds = %28, %.lr.ph.i.i
  %indvars.iv.next.i.i = add nuw nsw i64 %indvars.iv.i.i, 1
  %exitcond5.not = icmp eq i64 %indvars.iv.next.i.i, %25
  br i1 %exitcond5.not, label %._crit_edge.thread.i.i, label %.lr.ph.i.i, !llvm.loop !106

._crit_edge.i.i:                                  ; preds = %Vec_WecPrint.exit
  %.not.i.i = icmp eq ptr %.val.i, null
  br i1 %.not.i.i, label %Vec_WecFree.exit, label %._crit_edge.thread.i.i

._crit_edge.thread.i.i:                           ; preds = %29, %._crit_edge.i.i
  tail call void @free(ptr noundef nonnull %.val.i) #26
  br label %Vec_WecFree.exit

Vec_WecFree.exit:                                 ; preds = %._crit_edge.i.i, %._crit_edge.thread.i.i
  tail call void @free(ptr noundef nonnull %5) #26
  ret void
}